; Function Attrs: mustprogress uwtable
define void @_ZN18duckdb_fastpforlib8internal14__fastunpack59EPKjPm(ptr noalias noundef %0, ptr noalias noundef initializes((0, 32)) %1) local_unnamed_addr #5 {
  %3 = alloca ptr, align 8
  tail call void @llvm.experimental.noalias.scope.decl(metadata !8705)
  tail call void @llvm.experimental.noalias.scope.decl(metadata !8708)
  %4 = load i32, ptr %0, align 4, !tbaa !7, !noalias !8711
  %5 = zext i32 %4 to i64
  %6 = getelementptr inbounds nuw i8, ptr %0, i64 4
  %7 = load i32, ptr %6, align 4, !tbaa !7, !noalias !8711
  %8 = and i32 %7, 134217727
  %9 = zext nneg i32 %8 to i64
  %10 = shl nuw nsw i64 %9, 32
  %11 = or disjoint i64 %10, %5
  store i64 %11, ptr %1, align 8, !tbaa !9, !alias.scope !8711
  tail call void @llvm.experimental.noalias.scope.decl(metadata !8712)
  %12 = getelementptr inbounds nuw i8, ptr %1, i64 8
  tail call void @llvm.experimental.noalias.scope.decl(metadata !8715)
  %13 = lshr i32 %7, 27
  %14 = zext nneg i32 %13 to i64
  %15 = getelementptr inbounds nuw i8, ptr %0, i64 8
  %16 = load i32, ptr %15, align 4, !tbaa !7, !noalias !8718
  %17 = zext i32 %16 to i64
  %18 = shl nuw nsw i64 %17, 5
  %19 = or disjoint i64 %18, %14
  %20 = getelementptr inbounds nuw i8, ptr %0, i64 12
  %21 = load i32, ptr %20, align 4, !tbaa !7, !noalias !8718
  %22 = and i32 %21, 4194303
  %23 = zext nneg i32 %22 to i64
  %24 = shl nuw nsw i64 %23, 37
  %25 = or disjoint i64 %24, %19
  store i64 %25, ptr %12, align 8, !tbaa !9, !alias.scope !8718
  tail call void @llvm.experimental.noalias.scope.decl(metadata !8719)
  %26 = getelementptr inbounds nuw i8, ptr %1, i64 16
  tail call void @llvm.experimental.noalias.scope.decl(metadata !8722)
  %27 = lshr i32 %21, 22
  %28 = zext nneg i32 %27 to i64
  %29 = getelementptr inbounds nuw i8, ptr %0, i64 16
  %30 = load i32, ptr %29, align 4, !tbaa !7, !noalias !8725
  %31 = zext i32 %30 to i64
  %32 = shl nuw nsw i64 %31, 10
  %33 = or disjoint i64 %32, %28
  %34 = getelementptr inbounds nuw i8, ptr %0, i64 20
  %35 = load i32, ptr %34, align 4, !tbaa !7, !noalias !8725
  %36 = and i32 %35, 131071
  %37 = zext nneg i32 %36 to i64
  %38 = shl nuw nsw i64 %37, 42
  %39 = or disjoint i64 %38, %33
  store i64 %39, ptr %26, align 8, !tbaa !9, !alias.scope !8725
  tail call void @llvm.experimental.noalias.scope.decl(metadata !8726)
  %40 = getelementptr inbounds nuw i8, ptr %1, i64 24
  tail call void @llvm.experimental.noalias.scope.decl(metadata !8729)
  %41 = lshr i32 %35, 17
  %42 = zext nneg i32 %41 to i64
  %43 = getelementptr inbounds nuw i8, ptr %0, i64 24
  %44 = load i32, ptr %43, align 4, !tbaa !7, !noalias !8732
  %45 = zext i32 %44 to i64
  %46 = shl nuw nsw i64 %45, 15
  %47 = or disjoint i64 %46, %42
  %48 = getelementptr inbounds nuw i8, ptr %0, i64 28
  store ptr %48, ptr %3, align 8, !tbaa !1879, !noalias !8732
  %49 = load i32, ptr %48, align 4, !tbaa !7, !noalias !8732
  %50 = and i32 %49, 4095
  %51 = zext nneg i32 %50 to i64
  %52 = shl nuw nsw i64 %51, 47
  %53 = or disjoint i64 %52, %47
  store i64 %53, ptr %40, align 8, !tbaa !9, !alias.scope !8732
  call void @_ZN18duckdb_fastpforlib8internal8UnrollerILt59ELt4EE6UnpackERrPKjPm(ptr noundef nonnull align 8 dereferenceable(8) %3, ptr noundef nonnull %1)
  ret void
}